target datalayout = "e-m:e-p270:32:32-p271:32:32-p272:64:64-i64:64-i128:128-f80:128-n8:16:32:64-S128"
target triple = "x86_64-pc-linux-gnu"

; Function Attrs: mustprogress nounwind uwtable
define dso_local noalias noundef nonnull ptr @_ZN4llvm15allocate_bufferEmm(i64 noundef %0, i64 noundef %1) #0 {
  %3 = alloca i64, align 8
  %4 = alloca i64, align 8
  store i64 %0, ptr %3, align 8
  store i64 %1, ptr %4, align 8
  %5 = load i64, ptr %3, align 8
  %6 = load i64, ptr %4, align 8
  %7 = call noalias noundef nonnull ptr @_ZnwmSt11align_val_t(i64 noundef %5, i64 noundef %6) #4
  call void @llvm.assume(i1 true) [ "align"(ptr %7, i64 %6) ]
  ret ptr %7
}

; Function Attrs: nobuiltin allocsize(0)
declare noalias noundef nonnull ptr @_ZnwmSt11align_val_t(i64 noundef, i64 noundef) #1

; Function Attrs: nocallback nofree nosync nounwind willreturn memory(inaccessiblemem: write)
declare void @llvm.assume(i1 noundef) #2

; Function Attrs: mustprogress nounwind uwtable
define dso_local void @_ZN4llvm17deallocate_bufferEPvmm(ptr noundef %0, i64 noundef %1, i64 noundef %2) #0 {
  %4 = alloca ptr, align 8
  %5 = alloca i64, align 8
  %6 = alloca i64, align 8
  store ptr %0, ptr %4, align 8
  store i64 %1, ptr %5, align 8
  store i64 %2, ptr %6, align 8
  %7 = load ptr, ptr %4, align 8
  %8 = load i64, ptr %5, align 8
  %9 = load i64, ptr %6, align 8
  call void @_ZdlPvmSt11align_val_t(ptr noundef %7, i64 noundef %8, i64 noundef %9) #5
  ret void
}

; Function Attrs: nobuiltin nounwind
declare void @_ZdlPvmSt11align_val_t(ptr noundef, i64 noundef, i64 noundef) #3


!llvm.module.flags = !{!0, !1, !2, !3}

!0 = !{i32 1, !"wchar_size", i32 4}
!1 = !{i32 8, !"PIC Level", i32 2}
!2 = !{i32 7, !"uwtable", i32 2}
!3 = !{i32 7, !"frame-pointer", i32 2}
