; ModuleID = 'bench/llvm/original/MemAlloc.cpp.ll'
source_filename = "bench/llvm/original/MemAlloc.cpp.ll"
target datalayout = "e-m:e-p270:32:32-p271:32:32-p272:64:64-i64:64-i128:128-f80:128-n8:16:32:64-S128"
target triple = "x86_64-pc-linux-gnu"

; Function Attrs: mustprogress nounwind uwtable
define dso_local noalias noundef nonnull ptr @_ZN4llvm15allocate_bufferEmm(i64 noundef %0, i64 noundef %1) local_unnamed_addr #0 {
  %3 = tail call noalias noundef nonnull ptr @_ZnwmSt11align_val_t(i64 noundef %0, i64 noundef %1) #4
  call void @llvm.assume(i1 true) [ "align"(ptr %3, i64 %1) ]
  ret ptr %3
}

; Function Attrs: nobuiltin allocsize(0)
declare noalias noundef nonnull ptr @_ZnwmSt11align_val_t(i64 noundef, i64 noundef) local_unnamed_addr #1

; Function Attrs: mustprogress nocallback nofree nosync nounwind willreturn memory(inaccessiblemem: write)
declare void @llvm.assume(i1 noundef) #2

; Function Attrs: mustprogress nounwind uwtable
define dso_local void @_ZN4llvm17deallocate_bufferEPvmm(ptr noundef %0, i64 noundef %1, i64 noundef %2) local_unnamed_addr #0 {
  tail call void @_ZdlPvmSt11align_val_t(ptr noundef %0, i64 noundef %1, i64 noundef %2) #5
  ret void
}

; Function Attrs: nobuiltin nounwind
declare void @_ZdlPvmSt11align_val_t(ptr noundef, i64 noundef, i64 noundef) local_unnamed_addr #3


!llvm.module.flags = !{!0, !1, !2, !3}

!0 = !{i32 1, !"wchar_size", i32 4}
!1 = !{i32 8, !"PIC Level", i32 2}
!2 = !{i32 7, !"uwtable", i32 2}
!3 = !{i32 7, !"frame-pointer", i32 2}
